target datalayout = "e-m:e-p270:32:32-p271:32:32-p272:64:64-i64:64-i128:128-f80:128-n8:16:32:64-S128"
target triple = "x86_64-pc-linux-gnu"

; Function Attrs: nounwind uwtable
define dso_local ptr @get_partition_ancestors(i32 noundef %0) #0 {
  %2 = alloca i32, align 4
  %3 = alloca ptr, align 8
  %4 = alloca ptr, align 8
  store i32 %0, ptr %2, align 4
  call void @llvm.lifetime.start.p0(i64 8, ptr %3) #6
  store ptr null, ptr %3, align 8
  call void @llvm.lifetime.start.p0(i64 8, ptr %4) #6
  %5 = call ptr @table_open(i32 noundef 2611, i32 noundef 1)
  store ptr %5, ptr %4, align 8
  %6 = load ptr, ptr %4, align 8
  %7 = load i32, ptr %2, align 4
  call void @get_partition_ancestors_worker(ptr noundef %6, i32 noundef %7, ptr noundef %3)
  %8 = load ptr, ptr %4, align 8
  call void @table_close(ptr noundef %8, i32 noundef 1)
  %9 = load ptr, ptr %3, align 8
  call void @llvm.lifetime.end.p0(i64 8, ptr %4) #6
  call void @llvm.lifetime.end.p0(i64 8, ptr %3) #6
  ret ptr %9
}