; Function Attrs: nounwind uwtable
define dso_local ptr @get_partition_ancestors(i32 noundef %0) local_unnamed_addr #0 {
  %2 = alloca ptr, align 8
  call void @llvm.lifetime.start.p0(i64 8, ptr nonnull %2) #5
  store ptr null, ptr %2, align 8
  %3 = tail call ptr @table_open(i32 noundef 2611, i32 noundef 1) #5
  call fastcc void @get_partition_ancestors_worker(ptr noundef %3, i32 noundef %0, ptr noundef %2)
  tail call void @table_close(ptr noundef %3, i32 noundef 1) #5
  %4 = load ptr, ptr %2, align 8
  call void @llvm.lifetime.end.p0(i64 8, ptr nonnull %2) #5
  ret ptr %4
}